; Function Attrs: nounwind uwtable
define noalias nonnull ptr @l_Lean_SMap_instInhabited___rarg___boxed(ptr noundef %0, ptr noundef %1) #0 {
  %3 = load ptr, ptr @l_Lean_SMap_instInhabited___rarg___closed__3, align 8, !tbaa !4
  %4 = load ptr, ptr @l_Lean_SMap_instInhabited___rarg___closed__5, align 8, !tbaa !4
  tail call void @lean_inc_heartbeat() #3
  %5 = tail call noalias ptr @mi_malloc_small(i64 noundef 32) #3
  %6 = icmp eq ptr %5, null
  br i1 %6, label %7, label %l_Lean_SMap_instInhabited___rarg.exit

7:                                                ; preds = %2
  tail call void @lean_internal_panic_out_of_memory() #4
  unreachable

l_Lean_SMap_instInhabited___rarg.exit:            ; preds = %2
  %8 = getelementptr inbounds nuw i8, ptr %5, i64 4
  %9 = getelementptr inbounds nuw i8, ptr %5, i64 24
  store i64 1, ptr %9, align 8, !tbaa !8
  store i32 1, ptr %5, align 4, !tbaa !10
  store i32 131104, ptr %8, align 4
  %10 = getelementptr inbounds nuw i8, ptr %5, i64 8
  store ptr %3, ptr %10, align 8, !tbaa !4
  %11 = getelementptr inbounds nuw i8, ptr %5, i64 16
  store ptr %4, ptr %11, align 8, !tbaa !4
  %12 = ptrtoint ptr %1 to i64
  %13 = and i64 %12, 1
  %.not = icmp eq i64 %13, 0
  br i1 %.not, label %14, label %lean_dec.exit

14:                                               ; preds = %l_Lean_SMap_instInhabited___rarg.exit
  %15 = load i32, ptr %1, align 4, !tbaa !10
  %16 = icmp sgt i32 %15, 1
  br i1 %16, label %17, label %19, !prof !15

17:                                               ; preds = %14
  %18 = add nsw i32 %15, -1
  store i32 %18, ptr %1, align 4, !tbaa !10
  br label %lean_dec.exit

19:                                               ; preds = %14
  %.not.i6 = icmp eq i32 %15, 0
  br i1 %.not.i6, label %lean_dec.exit, label %20

20:                                               ; preds = %19
  tail call void @lean_dec_ref_cold(ptr noundef nonnull %1) #3
  br label %lean_dec.exit

lean_dec.exit:                                    ; preds = %20, %19, %17, %l_Lean_SMap_instInhabited___rarg.exit
  %21 = ptrtoint ptr %0 to i64
  %22 = and i64 %21, 1
  %.not8 = icmp eq i64 %22, 0
  br i1 %.not8, label %23, label %lean_dec.exit5

23:                                               ; preds = %lean_dec.exit
  %24 = load i32, ptr %0, align 4, !tbaa !10
  %25 = icmp sgt i32 %24, 1
  br i1 %25, label %26, label %28, !prof !15

26:                                               ; preds = %23
  %27 = add nsw i32 %24, -1
  store i32 %27, ptr %0, align 4, !tbaa !10
  br label %lean_dec.exit5

28:                                               ; preds = %23
  %.not.i = icmp eq i32 %24, 0
  br i1 %.not.i, label %lean_dec.exit5, label %29

29:                                               ; preds = %28
  tail call void @lean_dec_ref_cold(ptr noundef nonnull %0) #3
  br label %lean_dec.exit5

lean_dec.exit5:                                   ; preds = %29, %28, %26, %lean_dec.exit
  ret ptr %5
}